; Function Attrs: mustprogress uwtable
define void @_ZN5Ipopt19CompoundVectorSpace12SetCompSpaceEiRKNS_11VectorSpaceE(ptr noundef nonnull readonly align 8 captures(none) dereferenceable(48) %0, i32 noundef %1, ptr noundef nonnull align 8 dereferenceable(16) %2) unnamed_addr #0 align 2 {
  %4 = getelementptr inbounds nuw i8, ptr %0, i64 24
  %5 = sext i32 %1 to i64
  %6 = load ptr, ptr %4, align 8, !tbaa !70
  %7 = getelementptr inbounds nuw %"class.Ipopt::SmartPtr", ptr %6, i64 %5
  %8 = getelementptr inbounds nuw i8, ptr %2, i64 8
  %9 = load i32, ptr %8, align 8, !tbaa !3
  %10 = add nsw i32 %9, 1
  store i32 %10, ptr %8, align 8, !tbaa !3
  %11 = load ptr, ptr %7, align 8, !tbaa !10
  %.not.i.i.i = icmp eq ptr %11, null
  br i1 %.not.i.i.i, label %_ZN5Ipopt8SmartPtrIKNS_11VectorSpaceEEaSEPS2_.exit, label %12

12:                                               ; preds = %3
  %13 = getelementptr inbounds nuw i8, ptr %11, i64 8
  %14 = load i32, ptr %13, align 8, !tbaa !3
  %15 = add nsw i32 %14, -1
  store i32 %15, ptr %13, align 8, !tbaa !3
  %16 = icmp eq i32 %15, 0
  br i1 %16, label %17, label %_ZN5Ipopt8SmartPtrIKNS_11VectorSpaceEEaSEPS2_.exit

17:                                               ; preds = %12
  %18 = load ptr, ptr %11, align 8, !tbaa !8
  %19 = getelementptr inbounds nuw i8, ptr %18, i64 8
  %20 = load ptr, ptr %19, align 8
  tail call void %20(ptr noundef nonnull align 8 dereferenceable(16) %11) #23
  br label %_ZN5Ipopt8SmartPtrIKNS_11VectorSpaceEEaSEPS2_.exit

_ZN5Ipopt8SmartPtrIKNS_11VectorSpaceEEaSEPS2_.exit: ; preds = %3, %12, %17
  store ptr %2, ptr %7, align 8, !tbaa !10
  ret void
}